; Function Attrs: nounwind sspstrong uwtable
define internal i64 @rb_digest_class_s_bubblebabble(i32 noundef %0, ptr noundef %1, i64 noundef %2) #0 {
  %4 = alloca i64, align 8
  %5 = load i64, ptr @id_digest, align 8, !tbaa !6
  %6 = tail call i64 @rb_funcallv(i64 noundef %2, i64 noundef %5, i32 noundef %0, ptr noundef %1) #4
  call void @llvm.lifetime.start.p0(i64 8, ptr nonnull %4)
  store i64 %6, ptr %4, align 8, !tbaa !6
  %7 = call i64 @rb_string_value(ptr noundef nonnull %4) #4
  %8 = load i64, ptr %4, align 8, !tbaa !6
  %9 = inttoptr i64 %8 to ptr
  %10 = load i64, ptr %9, align 8, !tbaa !10, !noalias !22
  %11 = and i64 %10, 8192
  %.not.i.i.i = icmp eq i64 %11, 0
  %12 = getelementptr inbounds nuw i8, ptr %9, i64 24
  br i1 %.not.i.i.i, label %RSTRING_PTR.exit.i, label %13

13:                                               ; preds = %3
  %.sroa.2.0.copyload.i.i = load ptr, ptr %12, align 8
  br label %RSTRING_PTR.exit.i

RSTRING_PTR.exit.i:                               ; preds = %13, %3
  %.sroa.2.0.i.i = phi ptr [ %.sroa.2.0.copyload.i.i, %13 ], [ %12, %3 ]
  %14 = getelementptr inbounds nuw i8, ptr %9, i64 16
  %15 = load i64, ptr %14, align 8, !tbaa !15
  %16 = icmp ugt i64 %15, 3074457345618258601
  br i1 %16, label %17, label %19

17:                                               ; preds = %RSTRING_PTR.exit.i
  %18 = load i64, ptr @rb_eRuntimeError, align 8, !tbaa !6
  call void (i64, ptr, ...) @rb_raise(i64 noundef %18, ptr noundef nonnull @.str.5) #5
  unreachable

19:                                               ; preds = %RSTRING_PTR.exit.i
  %20 = or i64 %15, 1
  %21 = mul nuw nsw i64 %20, 3
  %22 = add nuw nsw i64 %21, 2
  %23 = call i64 @rb_str_new(ptr noundef null, i64 noundef %22) #4, !callees !17
  %24 = inttoptr i64 %23 to ptr
  %25 = load i64, ptr %24, align 8, !tbaa !10, !noalias !25
  %26 = and i64 %25, 8192
  %.not.i.i57.i = icmp eq i64 %26, 0
  %27 = getelementptr inbounds nuw i8, ptr %24, i64 24
  br i1 %.not.i.i57.i, label %RSTRING_PTR.exit60.i, label %28

28:                                               ; preds = %19
  %.sroa.2.0.copyload.i58.i = load ptr, ptr %27, align 8
  br label %RSTRING_PTR.exit60.i

RSTRING_PTR.exit60.i:                             ; preds = %28, %19
  %.sroa.2.0.i59.i = phi ptr [ %.sroa.2.0.copyload.i58.i, %28 ], [ %27, %19 ]
  store i8 120, ptr %.sroa.2.0.i59.i, align 1, !tbaa !21
  %.not69.not.i = icmp eq i64 %15, 0
  br i1 %.not69.not.i, label %._crit_edge.i, label %.lr.ph.i

._crit_edge.i.loopexit:                           ; preds = %66
  %29 = trunc nuw nsw i64 %89 to i8
  br label %._crit_edge.i

._crit_edge.i:                                    ; preds = %._crit_edge.i.loopexit, %RSTRING_PTR.exit60.i
  %.050.lcssa.i = phi i8 [ 1, %RSTRING_PTR.exit60.i ], [ %29, %._crit_edge.i.loopexit ]
  %.048.lcssa.i = phi i64 [ 1, %RSTRING_PTR.exit60.i ], [ %81, %._crit_edge.i.loopexit ]
  %30 = urem i8 %.050.lcssa.i, 6
  %.zext.i = zext nneg i8 %30 to i64
  %31 = getelementptr inbounds nuw [6 x i8], ptr @bubblebabble_str_new.vowels, i64 0, i64 %.zext.i
  %32 = load i8, ptr %31, align 1, !tbaa !21
  %33 = getelementptr inbounds nuw i8, ptr %.sroa.2.0.i59.i, i64 %.048.lcssa.i
  store i8 %32, ptr %33, align 1, !tbaa !21
  %34 = getelementptr i8, ptr %33, i64 1
  store i8 120, ptr %34, align 1, !tbaa !21
  %35 = udiv i8 %.050.lcssa.i, 6
  %.zext78.i = zext nneg i8 %35 to i64
  %36 = getelementptr inbounds nuw [6 x i8], ptr @bubblebabble_str_new.vowels, i64 0, i64 %.zext78.i
  %37 = load i8, ptr %36, align 1, !tbaa !21
  %38 = add i64 %.048.lcssa.i, 3
  %39 = getelementptr i8, ptr %33, i64 2
  store i8 %37, ptr %39, align 1, !tbaa !21
  br label %bubblebabble_str_new.exit

.lr.ph.i:                                         ; preds = %RSTRING_PTR.exit60.i, %66
  %.04772.i = phi i64 [ %67, %66 ], [ 0, %RSTRING_PTR.exit60.i ]
  %.04871.i = phi i64 [ %81, %66 ], [ 1, %RSTRING_PTR.exit60.i ]
  %.05070.i = phi i64 [ %89, %66 ], [ 1, %RSTRING_PTR.exit60.i ]
  %40 = or disjoint i64 %.04772.i, 1
  %41 = getelementptr inbounds nuw i8, ptr %.sroa.2.0.i.i, i64 %.04772.i
  %42 = load i8, ptr %41, align 1, !tbaa !21
  %43 = zext i8 %42 to i32
  %44 = lshr i32 %43, 6
  %45 = zext nneg i32 %44 to i64
  %46 = add nuw nsw i64 %.05070.i, %45
  %47 = urem i64 %46, 6
  %48 = getelementptr inbounds nuw [6 x i8], ptr @bubblebabble_str_new.vowels, i64 0, i64 %47
  %49 = load i8, ptr %48, align 1, !tbaa !21
  %50 = getelementptr inbounds nuw i8, ptr %.sroa.2.0.i59.i, i64 %.04871.i
  store i8 %49, ptr %50, align 1, !tbaa !21
  %51 = lshr i32 %43, 2
  %52 = and i32 %51, 15
  %53 = zext nneg i32 %52 to i64
  %54 = getelementptr inbounds nuw [17 x i8], ptr @bubblebabble_str_new.consonants, i64 0, i64 %53
  %55 = load i8, ptr %54, align 1, !tbaa !21
  %56 = getelementptr i8, ptr %50, i64 1
  store i8 %55, ptr %56, align 1, !tbaa !21
  %57 = and i32 %43, 3
  %58 = zext nneg i32 %57 to i64
  %59 = udiv i64 %.05070.i, 6
  %60 = add nuw nsw i64 %59, %58
  %61 = urem i64 %60, 6
  %62 = getelementptr inbounds nuw [6 x i8], ptr @bubblebabble_str_new.vowels, i64 0, i64 %61
  %63 = load i8, ptr %62, align 1, !tbaa !21
  %64 = add i64 %.04871.i, 3
  %65 = getelementptr i8, ptr %50, i64 2
  store i8 %63, ptr %65, align 1, !tbaa !21
  %.not56.i = icmp ult i64 %40, %15
  br i1 %.not56.i, label %66, label %bubblebabble_str_new.exit

66:                                               ; preds = %.lr.ph.i
  %67 = add nuw i64 %.04772.i, 2
  %68 = getelementptr inbounds nuw i8, ptr %.sroa.2.0.i.i, i64 %40
  %69 = load i8, ptr %68, align 1, !tbaa !21
  %70 = zext i8 %69 to i32
  %71 = lshr i32 %70, 4
  %72 = zext nneg i32 %71 to i64
  %73 = getelementptr inbounds nuw [17 x i8], ptr @bubblebabble_str_new.consonants, i64 0, i64 %72
  %74 = load i8, ptr %73, align 1, !tbaa !21
  %75 = getelementptr inbounds nuw i8, ptr %.sroa.2.0.i59.i, i64 %64
  store i8 %74, ptr %75, align 1, !tbaa !21
  %76 = getelementptr i8, ptr %50, i64 4
  store i8 45, ptr %76, align 1, !tbaa !21
  %77 = and i32 %70, 15
  %78 = zext nneg i32 %77 to i64
  %79 = getelementptr inbounds nuw [17 x i8], ptr @bubblebabble_str_new.consonants, i64 0, i64 %78
  %80 = load i8, ptr %79, align 1, !tbaa !21
  %81 = add i64 %.04871.i, 6
  %82 = getelementptr i8, ptr %50, i64 5
  store i8 %80, ptr %82, align 1, !tbaa !21
  %83 = mul nuw nsw i64 %.05070.i, 5
  %84 = mul nuw nsw i32 %43, 7
  %85 = zext nneg i32 %84 to i64
  %86 = add nuw nsw i64 %83, %85
  %87 = zext i8 %69 to i64
  %88 = add nuw nsw i64 %86, %87
  %89 = urem i64 %88, 36
  %.not.i = icmp ult i64 %67, %15
  br i1 %.not.i, label %.lr.ph.i, label %._crit_edge.i.loopexit

bubblebabble_str_new.exit:                        ; preds = %.lr.ph.i, %._crit_edge.i
  %.149.ph.i = phi i64 [ %38, %._crit_edge.i ], [ %64, %.lr.ph.i ]
  %90 = getelementptr inbounds nuw i8, ptr %.sroa.2.0.i59.i, i64 %.149.ph.i
  store i8 120, ptr %90, align 1, !tbaa !21
  call void @llvm.lifetime.end.p0(i64 8, ptr nonnull %4)
  ret i64 %23
}